target datalayout = "e-m:e-p270:32:32-p271:32:32-p272:64:64-i64:64-i128:128-f80:128-n8:16:32:64-S128"
target triple = "x86_64-pc-linux-gnu"

%"class.std::ios_base::Init" = type { i8 }
%"class.std::__cxx11::basic_string" = type { %"struct.std::__cxx11::basic_string<char>::_Alloc_hider", i64, %union.anon }
%"struct.std::__cxx11::basic_string<char>::_Alloc_hider" = type { ptr }
%union.anon = type { i64, [8 x i8] }

@_ZStL8__ioinit = internal global %"class.std::ios_base::Init" zeroinitializer, align 1
@__dso_handle = external hidden global i8
@.str = private unnamed_addr constant [17 x i8] c"0123456789ABCDEF\00", align 1
@_ZN18AbsRndNumGenerator4hex1E = dso_local global ptr @.str, align 8
@.str.1 = private unnamed_addr constant [11 x i8] c"0123456789\00", align 1
@_ZN18AbsRndNumGenerator4dec1E = dso_local global ptr @.str.1, align 8
@_ZTV18AbsRndNumGenerator = dso_local unnamed_addr constant { [13 x ptr] } { [13 x ptr] [ptr null, ptr @_ZTI18AbsRndNumGenerator, ptr @__cxa_pure_virtual, ptr @__cxa_pure_virtual, ptr @__cxa_pure_virtual, ptr @__cxa_pure_virtual, ptr @__cxa_pure_virtual, ptr @__cxa_pure_virtual, ptr @__cxa_pure_virtual, ptr @__cxa_pure_virtual, ptr @_ZN18AbsRndNumGeneratorD1Ev, ptr @_ZN18AbsRndNumGeneratorD0Ev, ptr @__cxa_pure_virtual] }, align 8
@_ZTVN10__cxxabiv117__class_type_infoE = external global [0 x ptr]
@_ZTS18AbsRndNumGenerator = dso_local constant [21 x i8] c"18AbsRndNumGenerator\00", align 1
@_ZTI18AbsRndNumGenerator = dso_local constant { ptr, ptr } { ptr getelementptr inbounds (ptr, ptr @_ZTVN10__cxxabiv117__class_type_infoE, i64 2), ptr @_ZTS18AbsRndNumGenerator }, align 8
@llvm.global_ctors = appending global [1 x { i32, ptr, ptr }] [{ i32, ptr, ptr } { i32 65535, ptr @_GLOBAL__sub_I_AbsRndNumGenerator.cpp, ptr null }]

@_ZN18AbsRndNumGeneratorD1Ev = dso_local unnamed_addr alias void (ptr), ptr @_ZN18AbsRndNumGeneratorD2Ev

; Function Attrs: uwtable
define internal void @__cxx_global_var_init() #0 section ".text.startup" {
  call void @_ZNSt8ios_base4InitC1Ev(ptr noundef nonnull align 1 dereferenceable(1) @_ZStL8__ioinit)
  %1 = call i32 @__cxa_atexit(ptr @_ZNSt8ios_base4InitD1Ev, ptr @_ZStL8__ioinit, ptr @__dso_handle) #3
  ret void
}

declare void @_ZNSt8ios_base4InitC1Ev(ptr noundef nonnull align 1 dereferenceable(1)) unnamed_addr #1

; Function Attrs: nounwind
declare void @_ZNSt8ios_base4InitD1Ev(ptr noundef nonnull align 1 dereferenceable(1)) unnamed_addr #2

; Function Attrs: nounwind
declare i32 @__cxa_atexit(ptr, ptr, ptr) #3

; Function Attrs: mustprogress nounwind uwtable
define dso_local void @_ZN18AbsRndNumGeneratorC2Ev(ptr noundef nonnull align 8 dereferenceable(8) %0) unnamed_addr #4 align 2 {
  %2 = alloca ptr, align 8
  store ptr %0, ptr %2, align 8
  %3 = load ptr, ptr %2, align 8
  store ptr getelementptr inbounds ({ [13 x ptr] }, ptr @_ZTV18AbsRndNumGenerator, i32 0, i32 0, i32 2), ptr %3, align 8
  ret void
}

; Function Attrs: mustprogress nounwind uwtable
define dso_local void @_ZN18AbsRndNumGeneratorD2Ev(ptr noundef nonnull align 8 dereferenceable(8) %0) unnamed_addr #4 align 2 {
  %2 = alloca ptr, align 8
  store ptr %0, ptr %2, align 8
  ret void
}

; Function Attrs: mustprogress nounwind uwtable
define dso_local void @_ZN18AbsRndNumGeneratorD0Ev(ptr noundef nonnull align 8 dereferenceable(8) %0) unnamed_addr #4 align 2 {
  %2 = alloca ptr, align 8
  store ptr %0, ptr %2, align 8
  call void @llvm.trap() #7
  unreachable
}

; Function Attrs: cold noreturn nounwind memory(inaccessiblemem: write)
declare void @llvm.trap() #5

; Function Attrs: mustprogress uwtable
define dso_local noundef ptr @_ZN18AbsRndNumGenerator21make_rndnum_generatorE16RNDNUM_GENERATORm(i32 noundef %0, i64 noundef %1) #6 align 2 {
  %3 = alloca i32, align 4
  %4 = alloca i64, align 8
  %5 = alloca ptr, align 8
  store i32 %0, ptr %3, align 4
  store i64 %1, ptr %4, align 8
  store ptr null, ptr %5, align 8
  %6 = load i64, ptr %4, align 8
  call void @_ZN18AbsRndNumGenerator8seedrandEm(i64 noundef %6)
  %7 = load i32, ptr %3, align 4
  switch i32 %7, label %13 [
    i32 0, label %8
    i32 1, label %11
  ]

8:                                                ; preds = %2
  %9 = load i64, ptr %4, align 8
  %10 = call noundef ptr @_ZN22DefaultRndNumGenerator21make_rndnum_generatorEm(i64 noundef %9)
  store ptr %10, ptr %5, align 8
  br label %14

11:                                               ; preds = %2
  %12 = call noundef ptr @_ZN18DFSRndNumGenerator21make_rndnum_generatorEv()
  store ptr %12, ptr %5, align 8
  br label %14

13:                                               ; preds = %2
  br label %14

14:                                               ; preds = %13, %11, %8
  %15 = load ptr, ptr %5, align 8
  ret ptr %15
}

; Function Attrs: mustprogress nounwind uwtable
define dso_local void @_ZN18AbsRndNumGenerator8seedrandEm(i64 noundef %0) #4 align 2 {
  %2 = alloca i64, align 8
  store i64 %0, ptr %2, align 8
  %3 = load i64, ptr %2, align 8
  call void @srand48(i64 noundef %3) #3
  ret void
}

declare noundef ptr @_ZN22DefaultRndNumGenerator21make_rndnum_generatorEm(i64 noundef) #1

declare noundef ptr @_ZN18DFSRndNumGenerator21make_rndnum_generatorEv() #1

; Function Attrs: nounwind
declare void @srand48(i64 noundef) #2

; Function Attrs: mustprogress nounwind uwtable
define dso_local noundef i64 @_ZN18AbsRndNumGenerator7genrandEv(ptr noundef nonnull align 8 dereferenceable(8) %0) unnamed_addr #4 align 2 {
  %2 = alloca ptr, align 8
  store ptr %0, ptr %2, align 8
  %3 = call i64 @lrand48() #3
  ret i64 %3
}

; Function Attrs: nounwind
declare i64 @lrand48() #2

; Function Attrs: mustprogress uwtable
define dso_local void @_ZN18AbsRndNumGenerator15RandomHexDigitsB5cxx11Ei(ptr dead_on_unwind noalias writable sret(%"class.std::__cxx11::basic_string") align 8 %0, ptr noundef nonnull align 8 dereferenceable(8) %1, i32 noundef %2) unnamed_addr #6 align 2 personality ptr @__gxx_personality_v0 {
  %4 = alloca ptr, align 8
  %5 = alloca ptr, align 8
  %6 = alloca i32, align 4
  %7 = alloca i1, align 1
  %8 = alloca ptr, align 8
  %9 = alloca i32, align 4
  store ptr %0, ptr %4, align 8
  store ptr %1, ptr %5, align 8
  store i32 %2, ptr %6, align 4
  %10 = load ptr, ptr %5, align 8
  store i1 false, ptr %7, align 1
  call void @_ZNSt7__cxx1112basic_stringIcSt11char_traitsIcESaIcEEC1Ev(ptr noundef nonnull align 8 dereferenceable(32) %0) #3
  br label %11

11:                                               ; preds = %26, %3
  %12 = load i32, ptr %6, align 4
  %13 = add nsw i32 %12, -1
  store i32 %13, ptr %6, align 4
  %14 = icmp ne i32 %12, 0
  br i1 %14, label %15, label %31

15:                                               ; preds = %11
  %16 = load ptr, ptr @_ZN18AbsRndNumGenerator4hex1E, align 8
  %17 = load ptr, ptr %10, align 8
  %18 = getelementptr inbounds ptr, ptr %17, i64 10
  %19 = load ptr, ptr %18, align 8
  %20 = invoke noundef i64 %19(ptr noundef nonnull align 8 dereferenceable(8) %10)
          to label %21 unwind label %27

21:                                               ; preds = %15
  %22 = urem i64 %20, 16
  %23 = getelementptr inbounds i8, ptr %16, i64 %22
  %24 = load i8, ptr %23, align 1
  %25 = invoke noundef nonnull align 8 dereferenceable(32) ptr @_ZNSt7__cxx1112basic_stringIcSt11char_traitsIcESaIcEEpLEc(ptr noundef nonnull align 8 dereferenceable(32) %0, i8 noundef signext %24)
          to label %26 unwind label %27

26:                                               ; preds = %21
  br label %11, !llvm.loop !5

27:                                               ; preds = %21, %15
  %28 = landingpad { ptr, i32 }
          cleanup
  %29 = extractvalue { ptr, i32 } %28, 0
  store ptr %29, ptr %8, align 8
  %30 = extractvalue { ptr, i32 } %28, 1
  store i32 %30, ptr %9, align 4
  call void @_ZNSt7__cxx1112basic_stringIcSt11char_traitsIcESaIcEED1Ev(ptr noundef nonnull align 8 dereferenceable(32) %0) #3
  br label %35

31:                                               ; preds = %11
  store i1 true, ptr %7, align 1
  %32 = load i1, ptr %7, align 1
  br i1 %32, label %34, label %33

33:                                               ; preds = %31
  call void @_ZNSt7__cxx1112basic_stringIcSt11char_traitsIcESaIcEED1Ev(ptr noundef nonnull align 8 dereferenceable(32) %0) #3
  br label %34

34:                                               ; preds = %33, %31
  ret void

35:                                               ; preds = %27
  %36 = load ptr, ptr %8, align 8
  %37 = load i32, ptr %9, align 4
  %38 = insertvalue { ptr, i32 } poison, ptr %36, 0
  %39 = insertvalue { ptr, i32 } %38, i32 %37, 1
  resume { ptr, i32 } %39
}

; Function Attrs: nounwind
declare void @_ZNSt7__cxx1112basic_stringIcSt11char_traitsIcESaIcEEC1Ev(ptr noundef nonnull align 8 dereferenceable(32)) unnamed_addr #2

declare i32 @__gxx_personality_v0(...)

declare noundef nonnull align 8 dereferenceable(32) ptr @_ZNSt7__cxx1112basic_stringIcSt11char_traitsIcESaIcEEpLEc(ptr noundef nonnull align 8 dereferenceable(32), i8 noundef signext) #1

; Function Attrs: nounwind
declare void @_ZNSt7__cxx1112basic_stringIcSt11char_traitsIcESaIcEED1Ev(ptr noundef nonnull align 8 dereferenceable(32)) unnamed_addr #2

; Function Attrs: mustprogress uwtable
define dso_local void @_ZN18AbsRndNumGenerator12RandomDigitsB5cxx11Ei(ptr dead_on_unwind noalias writable sret(%"class.std::__cxx11::basic_string") align 8 %0, ptr noundef nonnull align 8 dereferenceable(8) %1, i32 noundef %2) unnamed_addr #6 align 2 personality ptr @__gxx_personality_v0 {
  %4 = alloca ptr, align 8
  %5 = alloca ptr, align 8
  %6 = alloca i32, align 4
  %7 = alloca i1, align 1
  %8 = alloca ptr, align 8
  %9 = alloca i32, align 4
  store ptr %0, ptr %4, align 8
  store ptr %1, ptr %5, align 8
  store i32 %2, ptr %6, align 4
  %10 = load ptr, ptr %5, align 8
  store i1 false, ptr %7, align 1
  call void @_ZNSt7__cxx1112basic_stringIcSt11char_traitsIcESaIcEEC1Ev(ptr noundef nonnull align 8 dereferenceable(32) %0) #3
  br label %11

11:                                               ; preds = %26, %3
  %12 = load i32, ptr %6, align 4
  %13 = add nsw i32 %12, -1
  store i32 %13, ptr %6, align 4
  %14 = icmp ne i32 %12, 0
  br i1 %14, label %15, label %31

15:                                               ; preds = %11
  %16 = load ptr, ptr @_ZN18AbsRndNumGenerator4dec1E, align 8
  %17 = load ptr, ptr %10, align 8
  %18 = getelementptr inbounds ptr, ptr %17, i64 10
  %19 = load ptr, ptr %18, align 8
  %20 = invoke noundef i64 %19(ptr noundef nonnull align 8 dereferenceable(8) %10)
          to label %21 unwind label %27

21:                                               ; preds = %15
  %22 = urem i64 %20, 10
  %23 = getelementptr inbounds i8, ptr %16, i64 %22
  %24 = load i8, ptr %23, align 1
  %25 = invoke noundef nonnull align 8 dereferenceable(32) ptr @_ZNSt7__cxx1112basic_stringIcSt11char_traitsIcESaIcEEpLEc(ptr noundef nonnull align 8 dereferenceable(32) %0, i8 noundef signext %24)
          to label %26 unwind label %27

26:                                               ; preds = %21
  br label %11, !llvm.loop !7

27:                                               ; preds = %21, %15
  %28 = landingpad { ptr, i32 }
          cleanup
  %29 = extractvalue { ptr, i32 } %28, 0
  store ptr %29, ptr %8, align 8
  %30 = extractvalue { ptr, i32 } %28, 1
  store i32 %30, ptr %9, align 4
  call void @_ZNSt7__cxx1112basic_stringIcSt11char_traitsIcESaIcEED1Ev(ptr noundef nonnull align 8 dereferenceable(32) %0) #3
  br label %35

31:                                               ; preds = %11
  store i1 true, ptr %7, align 1
  %32 = load i1, ptr %7, align 1
  br i1 %32, label %34, label %33

33:                                               ; preds = %31
  call void @_ZNSt7__cxx1112basic_stringIcSt11char_traitsIcESaIcEED1Ev(ptr noundef nonnull align 8 dereferenceable(32) %0) #3
  br label %34

34:                                               ; preds = %33, %31
  ret void

35:                                               ; preds = %27
  %36 = load ptr, ptr %8, align 8
  %37 = load i32, ptr %9, align 4
  %38 = insertvalue { ptr, i32 } poison, ptr %36, 0
  %39 = insertvalue { ptr, i32 } %38, i32 %37, 1
  resume { ptr, i32 } %39
}

; Function Attrs: mustprogress nounwind uwtable
define dso_local noundef ptr @_ZN18AbsRndNumGenerator8get_hex1Ev() #4 align 2 {
  %1 = load ptr, ptr @_ZN18AbsRndNumGenerator4hex1E, align 8
  ret ptr %1
}

; Function Attrs: mustprogress nounwind uwtable
define dso_local noundef ptr @_ZN18AbsRndNumGenerator8get_dec1Ev() #4 align 2 {
  %1 = load ptr, ptr @_ZN18AbsRndNumGenerator4dec1E, align 8
  ret ptr %1
}

declare void @__cxa_pure_virtual() unnamed_addr

; Function Attrs: uwtable
define internal void @_GLOBAL__sub_I_AbsRndNumGenerator.cpp() #0 section ".text.startup" {
  call void @__cxx_global_var_init()
  ret void
}


!llvm.module.flags = !{!0, !1, !2, !3, !4}

!0 = !{i32 1, !"wchar_size", i32 4}
!1 = !{i32 8, !"PIC Level", i32 2}
!2 = !{i32 7, !"PIE Level", i32 2}
!3 = !{i32 7, !"uwtable", i32 2}
!4 = !{i32 7, !"frame-pointer", i32 2}
!5 = distinct !{!5, !6}
!6 = !{!"llvm.loop.mustprogress"}
!7 = distinct !{!7, !6}
