; ModuleID = 'bench/csmith/original/AbsRndNumGenerator.cpp.ll'
source_filename = "bench/csmith/original/AbsRndNumGenerator.cpp.ll"
target datalayout = "e-m:e-p270:32:32-p271:32:32-p272:64:64-i64:64-i128:128-f80:128-n8:16:32:64-S128"
target triple = "x86_64-pc-linux-gnu"

%"class.std::ios_base::Init" = type { i8 }
%"class.std::__cxx11::basic_string" = type { %"struct.std::__cxx11::basic_string<char>::_Alloc_hider", i64, %union.anon }
%"struct.std::__cxx11::basic_string<char>::_Alloc_hider" = type { ptr }
%union.anon = type { i64, [8 x i8] }

@_ZStL8__ioinit = internal global %"class.std::ios_base::Init" zeroinitializer, align 1
@__dso_handle = external hidden global i8
@.str = private unnamed_addr constant [17 x i8] c"0123456789ABCDEF\00", align 1
@_ZN18AbsRndNumGenerator4hex1E = dso_local local_unnamed_addr global ptr @.str, align 8
@.str.1 = private unnamed_addr constant [11 x i8] c"0123456789\00", align 1
@_ZN18AbsRndNumGenerator4dec1E = dso_local local_unnamed_addr global ptr @.str.1, align 8
@_ZTV18AbsRndNumGenerator = dso_local unnamed_addr constant { [13 x ptr] } { [13 x ptr] [ptr null, ptr @_ZTI18AbsRndNumGenerator, ptr @__cxa_pure_virtual, ptr @__cxa_pure_virtual, ptr @__cxa_pure_virtual, ptr @__cxa_pure_virtual, ptr @__cxa_pure_virtual, ptr @__cxa_pure_virtual, ptr @__cxa_pure_virtual, ptr @__cxa_pure_virtual, ptr @_ZN18AbsRndNumGeneratorD2Ev, ptr @_ZN18AbsRndNumGeneratorD0Ev, ptr @__cxa_pure_virtual] }, align 8
@_ZTVN10__cxxabiv117__class_type_infoE = external global [0 x ptr]
@_ZTS18AbsRndNumGenerator = dso_local constant [21 x i8] c"18AbsRndNumGenerator\00", align 1
@_ZTI18AbsRndNumGenerator = dso_local constant { ptr, ptr } { ptr getelementptr inbounds (ptr, ptr @_ZTVN10__cxxabiv117__class_type_infoE, i64 2), ptr @_ZTS18AbsRndNumGenerator }, align 8
@llvm.global_ctors = appending global [1 x { i32, ptr, ptr }] [{ i32, ptr, ptr } { i32 65535, ptr @_GLOBAL__sub_I_AbsRndNumGenerator.cpp, ptr null }]

@_ZN18AbsRndNumGeneratorD1Ev = dso_local unnamed_addr alias void (ptr), ptr @_ZN18AbsRndNumGeneratorD2Ev

declare void @_ZNSt8ios_base4InitC1Ev(ptr noundef nonnull align 1 dereferenceable(1)) unnamed_addr #0

; Function Attrs: nounwind
declare void @_ZNSt8ios_base4InitD1Ev(ptr noundef nonnull align 1 dereferenceable(1)) unnamed_addr #1

; Function Attrs: nofree nounwind
declare i32 @__cxa_atexit(ptr, ptr, ptr) local_unnamed_addr #2

; Function Attrs: mustprogress nofree norecurse nosync nounwind willreturn memory(argmem: write) uwtable
define dso_local void @_ZN18AbsRndNumGeneratorC2Ev(ptr nocapture noundef nonnull writeonly align 8 dereferenceable(8) %0) unnamed_addr #3 align 2 {
  store ptr getelementptr inbounds ({ [13 x ptr] }, ptr @_ZTV18AbsRndNumGenerator, i64 0, i32 0, i64 2), ptr %0, align 8
  ret void
}

; Function Attrs: mustprogress nofree norecurse nosync nounwind willreturn memory(none) uwtable
define dso_local void @_ZN18AbsRndNumGeneratorD2Ev(ptr nocapture nonnull readnone align 8 %0) unnamed_addr #4 align 2 {
  ret void
}

; Function Attrs: mustprogress noreturn nounwind memory(inaccessiblemem: write) uwtable
define dso_local void @_ZN18AbsRndNumGeneratorD0Ev(ptr nocapture nonnull readnone align 8 %0) unnamed_addr #5 align 2 {
  tail call void @llvm.trap() #11
  unreachable
}

; Function Attrs: cold noreturn nounwind memory(inaccessiblemem: write)
declare void @llvm.trap() #6

; Function Attrs: mustprogress uwtable
define dso_local noundef ptr @_ZN18AbsRndNumGenerator21make_rndnum_generatorE16RNDNUM_GENERATORm(i32 noundef %0, i64 noundef %1) local_unnamed_addr #7 align 2 {
  tail call void @srand48(i64 noundef %1) #12
  switch i32 %0, label %7 [
    i32 0, label %3
    i32 1, label %5
  ]

3:                                                ; preds = %2
  %4 = tail call noundef ptr @_ZN22DefaultRndNumGenerator21make_rndnum_generatorEm(i64 noundef %1)
  br label %7

5:                                                ; preds = %2
  %6 = tail call noundef ptr @_ZN18DFSRndNumGenerator21make_rndnum_generatorEv()
  br label %7

7:                                                ; preds = %2, %5, %3
  %.0 = phi ptr [ null, %2 ], [ %6, %5 ], [ %4, %3 ]
  ret ptr %.0
}

; Function Attrs: mustprogress nounwind uwtable
define dso_local void @_ZN18AbsRndNumGenerator8seedrandEm(i64 noundef %0) local_unnamed_addr #8 align 2 {
  tail call void @srand48(i64 noundef %0) #12
  ret void
}

declare noundef ptr @_ZN22DefaultRndNumGenerator21make_rndnum_generatorEm(i64 noundef) local_unnamed_addr #0

declare noundef ptr @_ZN18DFSRndNumGenerator21make_rndnum_generatorEv() local_unnamed_addr #0

; Function Attrs: nounwind
declare void @srand48(i64 noundef) local_unnamed_addr #1

; Function Attrs: mustprogress nounwind uwtable
define dso_local noundef i64 @_ZN18AbsRndNumGenerator7genrandEv(ptr nocapture noundef nonnull readnone align 8 dereferenceable(8) %0) unnamed_addr #8 align 2 {
  %2 = tail call i64 @lrand48() #12
  ret i64 %2
}

; Function Attrs: nounwind
declare i64 @lrand48() local_unnamed_addr #1

; Function Attrs: mustprogress uwtable
define dso_local void @_ZN18AbsRndNumGenerator15RandomHexDigitsB5cxx11Ei(ptr dead_on_unwind noalias nonnull writable sret(%"class.std::__cxx11::basic_string") align 8 %0, ptr noundef nonnull align 8 dereferenceable(8) %1, i32 noundef %2) unnamed_addr #7 align 2 personality ptr @__gxx_personality_v0 {
  tail call void @_ZNSt7__cxx1112basic_stringIcSt11char_traitsIcESaIcEEC1Ev(ptr noundef nonnull align 8 dereferenceable(32) %0) #12
  br label %4

4:                                                ; preds = %12, %3
  %.0 = phi i32 [ %2, %3 ], [ %5, %12 ]
  %5 = add nsw i32 %.0, -1
  %.not = icmp eq i32 %.0, 0
  br i1 %.not, label %19, label %6

6:                                                ; preds = %4
  %7 = load ptr, ptr @_ZN18AbsRndNumGenerator4hex1E, align 8
  %8 = load ptr, ptr %1, align 8
  %9 = getelementptr inbounds i8, ptr %8, i64 80
  %10 = load ptr, ptr %9, align 8
  %11 = invoke noundef i64 %10(ptr noundef nonnull align 8 dereferenceable(8) %1)
          to label %12 unwind label %17

12:                                               ; preds = %6
  %13 = and i64 %11, 15
  %14 = getelementptr inbounds i8, ptr %7, i64 %13
  %15 = load i8, ptr %14, align 1
  %16 = invoke noundef nonnull align 8 dereferenceable(32) ptr @_ZNSt7__cxx1112basic_stringIcSt11char_traitsIcESaIcEEpLEc(ptr noundef nonnull align 8 dereferenceable(32) %0, i8 noundef signext %15)
          to label %4 unwind label %17, !llvm.loop !5

17:                                               ; preds = %12, %6
  %18 = landingpad { ptr, i32 }
          cleanup
  tail call void @_ZNSt7__cxx1112basic_stringIcSt11char_traitsIcESaIcEED1Ev(ptr noundef nonnull align 8 dereferenceable(32) %0) #12
  resume { ptr, i32 } %18

19:                                               ; preds = %4
  ret void
}

; Function Attrs: nounwind
declare void @_ZNSt7__cxx1112basic_stringIcSt11char_traitsIcESaIcEEC1Ev(ptr noundef nonnull align 8 dereferenceable(32)) unnamed_addr #1

declare i32 @__gxx_personality_v0(...)

declare noundef nonnull align 8 dereferenceable(32) ptr @_ZNSt7__cxx1112basic_stringIcSt11char_traitsIcESaIcEEpLEc(ptr noundef nonnull align 8 dereferenceable(32), i8 noundef signext) local_unnamed_addr #0

; Function Attrs: nounwind
declare void @_ZNSt7__cxx1112basic_stringIcSt11char_traitsIcESaIcEED1Ev(ptr noundef nonnull align 8 dereferenceable(32)) unnamed_addr #1

; Function Attrs: mustprogress uwtable
define dso_local void @_ZN18AbsRndNumGenerator12RandomDigitsB5cxx11Ei(ptr dead_on_unwind noalias nonnull writable sret(%"class.std::__cxx11::basic_string") align 8 %0, ptr noundef nonnull align 8 dereferenceable(8) %1, i32 noundef %2) unnamed_addr #7 align 2 personality ptr @__gxx_personality_v0 {
  tail call void @_ZNSt7__cxx1112basic_stringIcSt11char_traitsIcESaIcEEC1Ev(ptr noundef nonnull align 8 dereferenceable(32) %0) #12
  br label %4

4:                                                ; preds = %12, %3
  %.0 = phi i32 [ %2, %3 ], [ %5, %12 ]
  %5 = add nsw i32 %.0, -1
  %.not = icmp eq i32 %.0, 0
  br i1 %.not, label %19, label %6

6:                                                ; preds = %4
  %7 = load ptr, ptr @_ZN18AbsRndNumGenerator4dec1E, align 8
  %8 = load ptr, ptr %1, align 8
  %9 = getelementptr inbounds i8, ptr %8, i64 80
  %10 = load ptr, ptr %9, align 8
  %11 = invoke noundef i64 %10(ptr noundef nonnull align 8 dereferenceable(8) %1)
          to label %12 unwind label %17

12:                                               ; preds = %6
  %13 = urem i64 %11, 10
  %14 = getelementptr inbounds i8, ptr %7, i64 %13
  %15 = load i8, ptr %14, align 1
  %16 = invoke noundef nonnull align 8 dereferenceable(32) ptr @_ZNSt7__cxx1112basic_stringIcSt11char_traitsIcESaIcEEpLEc(ptr noundef nonnull align 8 dereferenceable(32) %0, i8 noundef signext %15)
          to label %4 unwind label %17, !llvm.loop !7

17:                                               ; preds = %12, %6
  %18 = landingpad { ptr, i32 }
          cleanup
  tail call void @_ZNSt7__cxx1112basic_stringIcSt11char_traitsIcESaIcEED1Ev(ptr noundef nonnull align 8 dereferenceable(32) %0) #12
  resume { ptr, i32 } %18

19:                                               ; preds = %4
  ret void
}

; Function Attrs: mustprogress nofree norecurse nosync nounwind willreturn memory(read, argmem: none, inaccessiblemem: none) uwtable
define dso_local noundef ptr @_ZN18AbsRndNumGenerator8get_hex1Ev() local_unnamed_addr #9 align 2 {
  %1 = load ptr, ptr @_ZN18AbsRndNumGenerator4hex1E, align 8
  ret ptr %1
}

; Function Attrs: mustprogress nofree norecurse nosync nounwind willreturn memory(read, argmem: none, inaccessiblemem: none) uwtable
define dso_local noundef ptr @_ZN18AbsRndNumGenerator8get_dec1Ev() local_unnamed_addr #9 align 2 {
  %1 = load ptr, ptr @_ZN18AbsRndNumGenerator4dec1E, align 8
  ret ptr %1
}

declare void @__cxa_pure_virtual() unnamed_addr

; Function Attrs: uwtable
define internal void @_GLOBAL__sub_I_AbsRndNumGenerator.cpp() #10 section ".text.startup" {
  tail call void @_ZNSt8ios_base4InitC1Ev(ptr noundef nonnull align 1 dereferenceable(1) @_ZStL8__ioinit)
  %1 = tail call i32 @__cxa_atexit(ptr nonnull @_ZNSt8ios_base4InitD1Ev, ptr nonnull @_ZStL8__ioinit, ptr nonnull @__dso_handle) #12
  ret void
}


!llvm.module.flags = !{!0, !1, !2, !3, !4}

!0 = !{i32 1, !"wchar_size", i32 4}
!1 = !{i32 8, !"PIC Level", i32 2}
!2 = !{i32 7, !"PIE Level", i32 2}
!3 = !{i32 7, !"uwtable", i32 2}
!4 = !{i32 7, !"frame-pointer", i32 2}
!5 = distinct !{!5, !6}
!6 = !{!"llvm.loop.mustprogress"}
!7 = distinct !{!7, !6}
